target datalayout = "e-m:e-p270:32:32-p271:32:32-p272:64:64-i64:64-i128:128-f80:128-n8:16:32:64-S128"
target triple = "x86_64-pc-linux-gnu"

%struct.AVProbeData = type { ptr, ptr, i32, ptr }
%struct.AVFormatContext = type { ptr, ptr, ptr, ptr, ptr, i32, i32, ptr, i32, ptr, i32, ptr, ptr, i64, i64, i64, i32, i32, i32, i64, i64, ptr, i32, i32, ptr, i32, i32, i32, i32, ptr, i64, i32, i32, %struct.AVIOInterruptCB, i32, i32, i32, i32, i64, i32, i32, i32, i32, i32, i32, i32, i32, i32, i32, i32, i32, i64, i32, i32, i32, i32, i32, ptr, ptr, ptr, ptr, i32, ptr, ptr, ptr, ptr, i32, ptr, ptr, i64, ptr, ptr, ptr, i64 }
%struct.AVIOInterruptCB = type { ptr, ptr }
%struct.AVStream = type { ptr, i32, i32, ptr, ptr, %struct.AVRational, i64, i64, i64, i32, i32, %struct.AVRational, ptr, %struct.AVRational, %struct.AVPacket, i32, %struct.AVRational, i32 }
%struct.AVPacket = type { ptr, i64, i64, ptr, i32, i32, i32, ptr, i32, i64, i64, ptr, ptr, %struct.AVRational }
%struct.AVRational = type { i32, i32 }
%struct.FFStream = type { %struct.AVStream, ptr, i32, ptr, i32, ptr, i32, %struct.anon.1, i32, i32, %struct.FFFrac, ptr, ptr, i32, i32, i64, i64, i32, i32, i32, i64, i64, i64, i32, i64, i64, i64, i32, i32, [17 x i64], [17 x i8], [17 x i64], i64, i8, i8, %struct.AVRational, %struct.AVProbeData, ptr, i64, i32, i32, i32, ptr, i32, i32, i64, i64, ptr, %struct.AVRational }
%struct.anon.1 = type { ptr, i32 }
%struct.FFFrac = type { i64, i64, i64 }

; Function Attrs: alwaysinline nounwind uwtable
define internal ptr @ffstream(ptr noundef %0) #10 {
  %2 = alloca ptr, align 8
  store ptr %0, ptr %2, align 8, !tbaa !53
  %3 = load ptr, ptr %2, align 8, !tbaa !53
  ret ptr %3
}

; Function Attrs: nounwind uwtable
define internal i32 @sbg_read_seek2(ptr noundef %0, i32 noundef %1, i64 noundef %2, i64 noundef %3, i64 noundef %4, i32 noundef %5) #1 {
  %7 = alloca i32, align 4
  %8 = alloca ptr, align 8
  %9 = alloca i32, align 4
  %10 = alloca i64, align 8
  %11 = alloca i64, align 8
  %12 = alloca i64, align 8
  %13 = alloca i32, align 4
  %14 = alloca %struct.AVRational, align 4
  store ptr %0, ptr %8, align 8, !tbaa !23
  store i32 %1, ptr %9, align 4, !tbaa !14
  store i64 %2, ptr %10, align 8, !tbaa !96
  store i64 %3, ptr %11, align 8, !tbaa !96
  store i64 %4, ptr %12, align 8, !tbaa !96
  store i32 %5, ptr %13, align 4, !tbaa !14
  %15 = load i32, ptr %13, align 4, !tbaa !14
  %16 = icmp ne i32 %15, 0
  br i1 %16, label %20, label %17

17:                                               ; preds = %6
  %18 = load i32, ptr %9, align 4, !tbaa !14
  %19 = icmp sgt i32 %18, 0
  br i1 %19, label %20, label %21

20:                                               ; preds = %17, %6
  store i32 -22, ptr %7, align 4
  br label %46

21:                                               ; preds = %17
  %22 = load i32, ptr %9, align 4, !tbaa !14
  %23 = icmp slt i32 %22, 0
  br i1 %23, label %24, label %37

24:                                               ; preds = %21
  %25 = load i64, ptr %11, align 8, !tbaa !96
  %26 = getelementptr inbounds nuw %struct.AVRational, ptr %14, i32 0, i32 0
  store i32 1, ptr %26, align 4, !tbaa !102
  %27 = getelementptr inbounds nuw %struct.AVRational, ptr %14, i32 0, i32 1
  store i32 1000000, ptr %27, align 4, !tbaa !103
  %28 = load ptr, ptr %8, align 8, !tbaa !23
  %29 = getelementptr inbounds nuw %struct.AVFormatContext, ptr %28, i32 0, i32 7
  %30 = load ptr, ptr %29, align 8, !tbaa !95
  %31 = getelementptr inbounds ptr, ptr %30, i64 0
  %32 = load ptr, ptr %31, align 8, !tbaa !53
  %33 = getelementptr inbounds nuw %struct.AVStream, ptr %32, i32 0, i32 5
  %34 = load i64, ptr %14, align 4
  %35 = load i64, ptr %33, align 8
  %36 = call i64 @av_rescale_q(i64 noundef %25, i64 %34, i64 %35) #14
  store i64 %36, ptr %11, align 8, !tbaa !96
  br label %37

37:                                               ; preds = %24, %21
  %38 = load i64, ptr %11, align 8, !tbaa !96
  %39 = load ptr, ptr %8, align 8, !tbaa !23
  %40 = getelementptr inbounds nuw %struct.AVFormatContext, ptr %39, i32 0, i32 7
  %41 = load ptr, ptr %40, align 8, !tbaa !95
  %42 = getelementptr inbounds ptr, ptr %41, i64 0
  %43 = load ptr, ptr %42, align 8, !tbaa !53
  %44 = call ptr @ffstream(ptr noundef %43)
  %45 = getelementptr inbounds nuw %struct.FFStream, ptr %44, i32 0, i32 46
  store i64 %38, ptr %45, align 8, !tbaa !89
  store i32 0, ptr %7, align 4
  br label %46

46:                                               ; preds = %37, %20
  %47 = load i32, ptr %7, align 4
  ret i32 %47
}

; Function Attrs: nounwind uwtable
define internal i32 @sbg_read_seek(ptr noundef %0, i32 noundef %1, i64 noundef %2, i32 noundef %3) #1 {
  %5 = alloca ptr, align 8
  %6 = alloca i32, align 4
  %7 = alloca i64, align 8
  %8 = alloca i32, align 4
  store ptr %0, ptr %5, align 8, !tbaa !23
  store i32 %1, ptr %6, align 4, !tbaa !14
  store i64 %2, ptr %7, align 8, !tbaa !96
  store i32 %3, ptr %8, align 4, !tbaa !14
  %9 = load ptr, ptr %5, align 8, !tbaa !23
  %10 = load i32, ptr %6, align 4, !tbaa !14
  %11 = load i64, ptr %7, align 8, !tbaa !96
  %12 = load i64, ptr %7, align 8, !tbaa !96
  %13 = load i64, ptr %7, align 8, !tbaa !96
  %14 = call i32 @sbg_read_seek2(ptr noundef %9, i32 noundef %10, i64 noundef %11, i64 noundef %12, i64 noundef %13, i32 noundef 0)
  ret i32 %14
}