; Function Attrs: mustprogress nofree nosync nounwind willreturn memory(readwrite, inaccessiblemem: none) uwtable
define internal range(i32 -22, 1) i32 @sbg_read_seek(ptr noundef readonly captures(none) %0, i32 noundef %1, i64 noundef %2, i32 %3) #2 {
  %5 = icmp sgt i32 %1, 0
  br i1 %5, label %sbg_read_seek2.exit, label %6

6:                                                ; preds = %4
  %7 = icmp slt i32 %1, 0
  %8 = getelementptr inbounds nuw i8, ptr %0, i64 48
  %9 = load ptr, ptr %8, align 8, !tbaa !147
  %10 = load ptr, ptr %9, align 8, !tbaa !148
  br i1 %7, label %11, label %._crit_edge.i

11:                                               ; preds = %6
  %12 = getelementptr inbounds nuw i8, ptr %10, i64 32
  %13 = load i64, ptr %12, align 8
  %14 = tail call i64 @av_rescale_q(i64 noundef %2, i64 4294967296000001, i64 %13) #17
  br label %._crit_edge.i

._crit_edge.i:                                    ; preds = %11, %6
  %.08.i = phi i64 [ %14, %11 ], [ %2, %6 ]
  %15 = getelementptr inbounds nuw i8, ptr %10, i64 840
  store i64 %.08.i, ptr %15, align 8, !tbaa !132
  br label %sbg_read_seek2.exit

sbg_read_seek2.exit:                              ; preds = %4, %._crit_edge.i
  %.0.i = phi i32 [ 0, %._crit_edge.i ], [ -22, %4 ]
  ret i32 %.0.i
}